target datalayout = "e-m:e-p270:32:32-p271:32:32-p272:64:64-i64:64-i128:128-f80:128-n8:16:32:64-S128"
target triple = "x86_64-pc-linux-gnu"

%class.anon.236 = type { i8 }
%struct.WasmEdge_Result = type { i32 }
%"class.cxx20::expected.737" = type { %"struct.cxx20::detail::expected_move_assign_base.738" }
%"struct.cxx20::detail::expected_move_assign_base.738" = type { %"struct.cxx20::detail::expected_copy_assign_base.739" }
%"struct.cxx20::detail::expected_copy_assign_base.739" = type { %"struct.cxx20::detail::expected_move_base.740" }
%"struct.cxx20::detail::expected_move_base.740" = type { %"struct.cxx20::detail::expected_copy_base.741" }
%"struct.cxx20::detail::expected_copy_base.741" = type { %"struct.cxx20::detail::expected_operations_base.742" }
%"struct.cxx20::detail::expected_operations_base.742" = type { %"struct.cxx20::detail::expected_view_base.743" }
%"struct.cxx20::detail::expected_view_base.743" = type { %"struct.cxx20::detail::expected_storage_base.744" }
%"struct.cxx20::detail::expected_storage_base.744" = type { i8, %union.anon.745 }
%union.anon.745 = type { %"class.cxx20::unexpected.637" }
%"class.cxx20::unexpected.637" = type { %"class.WasmEdge::ErrCode" }
%"class.WasmEdge::ErrCode" = type { %"union.WasmEdge::ErrCode::InnerT" }
%"union.WasmEdge::ErrCode::InnerT" = type { i32 }
%class.anon.244 = type { ptr, ptr }

@_ZN12_GLOBAL__N_19EmptyThenE = internal global %class.anon.236 undef, align 1

; Function Attrs: mustprogress nounwind uwtable
define internal noundef zeroext i1 @_ZN5cxx206detailL6likelyEb(i1 noundef zeroext %0) #0 {
  %2 = alloca i8, align 1
  %3 = zext i1 %0 to i8
  store i8 %3, ptr %2, align 1
  %4 = load i8, ptr %2, align 1
  %5 = trunc i8 %4 to i1
  ret i1 %5
}

; Function Attrs: mustprogress nounwind uwtable
define linkonce_odr hidden noundef i32 @_ZNK8WasmEdge7ErrCodecvjEv(ptr noundef nonnull align 4 dereferenceable(4) %0) #0 comdat align 2 {
  %2 = alloca ptr, align 8
  store ptr %0, ptr %2, align 8
  %3 = load ptr, ptr %2, align 8
  %4 = getelementptr inbounds %"class.WasmEdge::ErrCode", ptr %3, i32 0, i32 0
  %5 = load i32, ptr %4, align 4
  ret i32 %5
}

; Function Attrs: mustprogress nounwind uwtable
define linkonce_odr hidden noundef nonnull align 4 dereferenceable(4) ptr @_ZNR5cxx2010unexpectedIN8WasmEdge7ErrCodeEE5valueEv(ptr noundef nonnull align 4 dereferenceable(4) %0) #0 comdat align 2 {
  %2 = alloca ptr, align 8
  store ptr %0, ptr %2, align 8
  %3 = load ptr, ptr %2, align 8
  %4 = getelementptr inbounds %"class.cxx20::unexpected.637", ptr %3, i32 0, i32 0
  ret ptr %4
}

; Function Attrs: mustprogress nounwind uwtable
define linkonce_odr hidden noundef zeroext i1 @_ZNK5cxx206detail18expected_view_baseIvN8WasmEdge7ErrCodeEE9has_valueEv(ptr noundef nonnull align 4 dereferenceable(8) %0) #0 comdat align 2 {
  %2 = alloca ptr, align 8
  store ptr %0, ptr %2, align 8
  %3 = load ptr, ptr %2, align 8
  %4 = getelementptr inbounds %"struct.cxx20::detail::expected_storage_base.744", ptr %3, i32 0, i32 0
  %5 = load i8, ptr %4, align 4
  %6 = trunc i8 %5 to i1
  %7 = call noundef zeroext i1 @_ZN5cxx206detailL6likelyEb(i1 noundef zeroext %6)
  ret i1 %7
}

; Function Attrs: mustprogress nounwind uwtable
define internal noundef ptr @_ZN12_GLOBAL__N_113fromASTModCxtEPK25WasmEdge_ASTModuleContext(ptr noundef %0) #0 {
  %2 = alloca ptr, align 8
  store ptr %0, ptr %2, align 8
  %3 = load ptr, ptr %2, align 8
  ret ptr %3
}

; Function Attrs: mustprogress nounwind uwtable
define internal noundef ptr @_ZN12_GLOBAL__N_116fromValidatorCxtEP25WasmEdge_ValidatorContext(ptr noundef %0) #0 {
  %2 = alloca ptr, align 8
  store ptr %0, ptr %2, align 8
  %3 = load ptr, ptr %2, align 8
  ret ptr %3
}

; Function Attrs: mustprogress nounwind uwtable
define internal noundef zeroext i1 @_ZN12_GLOBAL__N_19isContextIK25WasmEdge_ASTModuleContextEEbPT_(ptr noundef %0) #0 {
  %2 = alloca ptr, align 8
  store ptr %0, ptr %2, align 8
  %3 = load ptr, ptr %2, align 8
  %4 = icmp ne ptr %3, null
  ret i1 %4
}

; Function Attrs: mustprogress nounwind uwtable
define internal noundef zeroext i1 @_ZN12_GLOBAL__N_19isContextI25WasmEdge_ValidatorContextEEbPT_(ptr noundef %0) #0 {
  %2 = alloca ptr, align 8
  store ptr %0, ptr %2, align 8
  %3 = load ptr, ptr %2, align 8
  %4 = icmp ne ptr %3, null
  ret i1 %4
}

; Function Attrs: mustprogress nounwind uwtable
define internal i32 @_ZN12_GLOBAL__N_118genWasmEdge_ResultERKN8WasmEdge7ErrCodeE(ptr noundef nonnull align 4 dereferenceable(4) %0) #0 {
  %2 = alloca %struct.WasmEdge_Result, align 4
  %3 = alloca ptr, align 8
  store ptr %0, ptr %3, align 8
  %4 = getelementptr inbounds %struct.WasmEdge_Result, ptr %2, i32 0, i32 0
  %5 = load ptr, ptr %3, align 8
  %6 = call noundef i32 @_ZNK8WasmEdge7ErrCodecvjEv(ptr noundef nonnull align 4 dereferenceable(4) %5) #18
  store i32 %6, ptr %4, align 4
  %7 = getelementptr inbounds %struct.WasmEdge_Result, ptr %2, i32 0, i32 0
  %8 = load i32, ptr %7, align 4
  ret i32 %8
}

; Function Attrs: mustprogress nounwind uwtable
define linkonce_odr hidden noundef nonnull align 4 dereferenceable(4) ptr @_ZNR5cxx206detail18expected_view_baseIvN8WasmEdge7ErrCodeEE5errorEv(ptr noundef nonnull align 4 dereferenceable(8) %0) #0 comdat align 2 {
  %2 = alloca ptr, align 8
  store ptr %0, ptr %2, align 8
  %3 = load ptr, ptr %2, align 8
  %4 = getelementptr inbounds %"struct.cxx20::detail::expected_storage_base.744", ptr %3, i32 0, i32 1
  %5 = call noundef nonnull align 4 dereferenceable(4) ptr @_ZNR5cxx2010unexpectedIN8WasmEdge7ErrCodeEE5valueEv(ptr noundef nonnull align 4 dereferenceable(4) %4) #18
  ret ptr %5
}

; Function Attrs: mustprogress nounwind uwtable
define internal i32 @_ZN12_GLOBAL__N_118genWasmEdge_ResultERKN8WasmEdge7ErrCode5ValueE(ptr noundef nonnull align 4 dereferenceable(4) %0) #0 {
  %2 = alloca %struct.WasmEdge_Result, align 4
  %3 = alloca ptr, align 8
  store ptr %0, ptr %3, align 8
  %4 = getelementptr inbounds %struct.WasmEdge_Result, ptr %2, i32 0, i32 0
  %5 = load ptr, ptr %3, align 8
  %6 = load i32, ptr %5, align 4
  %7 = and i32 %6, 16777215
  store i32 %7, ptr %4, align 4
  %8 = getelementptr inbounds %struct.WasmEdge_Result, ptr %2, i32 0, i32 0
  %9 = load i32, ptr %8, align 4
  ret i32 %9
}

; Function Attrs: mustprogress nounwind uwtable
define internal void @"_ZNK12_GLOBAL__N_14$_10clIRN5cxx208expectedIvN8WasmEdge7ErrCodeEEEEEDaOT_"(ptr noundef nonnull align 1 dereferenceable(1) %0, ptr noundef nonnull align 4 dereferenceable(8) %1) #0 align 2 {
  %3 = alloca ptr, align 8
  %4 = alloca ptr, align 8
  store ptr %0, ptr %3, align 8
  store ptr %1, ptr %4, align 8
  ret void
}

; Function Attrs: mustprogress nounwind uwtable
define linkonce_odr hidden noundef zeroext i1 @_ZNK5cxx208expectedIvN8WasmEdge7ErrCodeEEcvbEv(ptr noundef nonnull align 4 dereferenceable(8) %0) #0 comdat align 2 {
  %2 = alloca ptr, align 8
  store ptr %0, ptr %2, align 8
  %3 = load ptr, ptr %2, align 8
  %4 = call noundef zeroext i1 @_ZNK5cxx206detail18expected_view_baseIvN8WasmEdge7ErrCodeEE9has_valueEv(ptr noundef nonnull align 4 dereferenceable(8) %3) #18
  ret i1 %4
}

; Function Attrs: mustprogress uwtable
define internal void @"_ZZ26WasmEdge_ValidatorValidateENK3$_0clEv"(ptr dead_on_unwind noalias writable sret(%"class.cxx20::expected.737") align 4 %0, ptr noundef nonnull align 8 dereferenceable(16) %1) #1 align 2 {
  %3 = alloca ptr, align 8
  %4 = alloca ptr, align 8
  store ptr %0, ptr %3, align 8
  store ptr %1, ptr %4, align 8
  %5 = load ptr, ptr %4, align 8
  %6 = getelementptr inbounds %class.anon.244, ptr %5, i32 0, i32 0
  %7 = load ptr, ptr %6, align 8
  %8 = load ptr, ptr %7, align 8
  %9 = call noundef ptr @_ZN12_GLOBAL__N_116fromValidatorCxtEP25WasmEdge_ValidatorContext(ptr noundef %8) #18
  %10 = getelementptr inbounds %class.anon.244, ptr %5, i32 0, i32 1
  %11 = load ptr, ptr %10, align 8
  %12 = load ptr, ptr %11, align 8
  %13 = call noundef ptr @_ZN12_GLOBAL__N_113fromASTModCxtEPK25WasmEdge_ASTModuleContext(ptr noundef %12) #18
  call void @_ZN8WasmEdge9Validator9Validator8validateERKNS_3AST6ModuleE(ptr dead_on_unwind writable sret(%"class.cxx20::expected.737") align 4 %0, ptr noundef nonnull align 8 dereferenceable(520) %9, ptr noundef nonnull align 8 dereferenceable(705) %13)
  ret void
}

; Function Attrs: mustprogress nounwind uwtable
define internal noundef zeroext i1 @_ZN12_GLOBAL__N_19isContextI25WasmEdge_ValidatorContextJK25WasmEdge_ASTModuleContextEEEbPT_DpPT0_(ptr noundef %0, ptr noundef %1) #0 {
  %3 = alloca ptr, align 8
  %4 = alloca ptr, align 8
  store ptr %0, ptr %3, align 8
  store ptr %1, ptr %4, align 8
  %5 = load ptr, ptr %3, align 8
  %6 = call noundef zeroext i1 @_ZN12_GLOBAL__N_19isContextI25WasmEdge_ValidatorContextEEbPT_(ptr noundef %5) #18
  br i1 %6, label %7, label %10

7:                                                ; preds = %2
  %8 = load ptr, ptr %4, align 8
  %9 = call noundef zeroext i1 @_ZN12_GLOBAL__N_19isContextIK25WasmEdge_ASTModuleContextEEbPT_(ptr noundef %8) #18
  br label %10

10:                                               ; preds = %7, %2
  %11 = phi i1 [ false, %2 ], [ %9, %7 ]
  ret i1 %11
}

; Function Attrs: mustprogress nounwind uwtable
define internal i32 @"_ZN12_GLOBAL__N_14wrapIZ26WasmEdge_ValidatorValidateE3$_0RNS_4$_10EJ25WasmEdge_ValidatorContextK25WasmEdge_ASTModuleContextEEE15WasmEdge_ResultOT_OT0_DpPT1_"(ptr noundef nonnull align 8 dereferenceable(16) %0, ptr noundef nonnull align 1 dereferenceable(1) %1, ptr noundef %2, ptr noundef %3) #0 personality ptr @__gxx_personality_v0 {
  %5 = alloca %struct.WasmEdge_Result, align 4
  %6 = alloca ptr, align 8
  %7 = alloca ptr, align 8
  %8 = alloca ptr, align 8
  %9 = alloca ptr, align 8
  %10 = alloca %"class.cxx20::expected.737", align 4
  %11 = alloca i32, align 4
  %12 = alloca i32, align 4
  store ptr %0, ptr %6, align 8
  store ptr %1, ptr %7, align 8
  store ptr %2, ptr %8, align 8
  store ptr %3, ptr %9, align 8
  %13 = load ptr, ptr %8, align 8
  %14 = load ptr, ptr %9, align 8
  %15 = call noundef zeroext i1 @_ZN12_GLOBAL__N_19isContextI25WasmEdge_ValidatorContextJK25WasmEdge_ASTModuleContextEEEbPT_DpPT0_(ptr noundef %13, ptr noundef %14) #18
  br i1 %15, label %16, label %28

16:                                               ; preds = %4
  %17 = load ptr, ptr %6, align 8
  invoke void @"_ZZ26WasmEdge_ValidatorValidateENK3$_0clEv"(ptr dead_on_unwind writable sret(%"class.cxx20::expected.737") align 4 %10, ptr noundef nonnull align 8 dereferenceable(16) %17)
          to label %18 unwind label %34

18:                                               ; preds = %16
  %19 = call noundef zeroext i1 @_ZNK5cxx208expectedIvN8WasmEdge7ErrCodeEEcvbEv(ptr noundef nonnull align 4 dereferenceable(8) %10) #18
  br i1 %19, label %20, label %24

20:                                               ; preds = %18
  %21 = load ptr, ptr %7, align 8
  call void @"_ZNK12_GLOBAL__N_14$_10clIRN5cxx208expectedIvN8WasmEdge7ErrCodeEEEEEDaOT_"(ptr noundef nonnull align 1 dereferenceable(1) %21, ptr noundef nonnull align 4 dereferenceable(8) %10) #18
  store i32 0, ptr %11, align 4
  %22 = call i32 @_ZN12_GLOBAL__N_118genWasmEdge_ResultERKN8WasmEdge7ErrCode5ValueE(ptr noundef nonnull align 4 dereferenceable(4) %11) #18
  %23 = getelementptr inbounds %struct.WasmEdge_Result, ptr %5, i32 0, i32 0
  store i32 %22, ptr %23, align 4
  br label %31

24:                                               ; preds = %18
  %25 = call noundef nonnull align 4 dereferenceable(4) ptr @_ZNR5cxx206detail18expected_view_baseIvN8WasmEdge7ErrCodeEE5errorEv(ptr noundef nonnull align 4 dereferenceable(8) %10) #18
  %26 = call i32 @_ZN12_GLOBAL__N_118genWasmEdge_ResultERKN8WasmEdge7ErrCodeE(ptr noundef nonnull align 4 dereferenceable(4) %25) #18
  %27 = getelementptr inbounds %struct.WasmEdge_Result, ptr %5, i32 0, i32 0
  store i32 %26, ptr %27, align 4
  br label %31

28:                                               ; preds = %4
  store i32 4, ptr %12, align 4
  %29 = call i32 @_ZN12_GLOBAL__N_118genWasmEdge_ResultERKN8WasmEdge7ErrCode5ValueE(ptr noundef nonnull align 4 dereferenceable(4) %12) #18
  %30 = getelementptr inbounds %struct.WasmEdge_Result, ptr %5, i32 0, i32 0
  store i32 %29, ptr %30, align 4
  br label %31

31:                                               ; preds = %28, %24, %20
  %32 = getelementptr inbounds %struct.WasmEdge_Result, ptr %5, i32 0, i32 0
  %33 = load i32, ptr %32, align 4
  ret i32 %33

34:                                               ; preds = %16
  %35 = landingpad { ptr, i32 }
          catch ptr null
  %36 = extractvalue { ptr, i32 } %35, 0
  call void @__clang_call_terminate(ptr %36) #19
  unreachable
}

; Function Attrs: mustprogress nounwind uwtable
define i32 @WasmEdge_ValidatorValidate(ptr noundef %0, ptr noundef %1) #0 {
  %3 = alloca %struct.WasmEdge_Result, align 4
  %4 = alloca ptr, align 8
  %5 = alloca ptr, align 8
  %6 = alloca %class.anon.244, align 8
  store ptr %0, ptr %4, align 8
  store ptr %1, ptr %5, align 8
  %7 = getelementptr inbounds %class.anon.244, ptr %6, i32 0, i32 0
  store ptr %4, ptr %7, align 8
  %8 = getelementptr inbounds %class.anon.244, ptr %6, i32 0, i32 1
  store ptr %5, ptr %8, align 8
  %9 = load ptr, ptr %4, align 8
  %10 = load ptr, ptr %5, align 8
  %11 = call i32 @"_ZN12_GLOBAL__N_14wrapIZ26WasmEdge_ValidatorValidateE3$_0RNS_4$_10EJ25WasmEdge_ValidatorContextK25WasmEdge_ASTModuleContextEEE15WasmEdge_ResultOT_OT0_DpPT1_"(ptr noundef nonnull align 8 dereferenceable(16) %6, ptr noundef nonnull align 1 dereferenceable(1) @_ZN12_GLOBAL__N_19EmptyThenE, ptr noundef %9, ptr noundef %10) #18
  %12 = getelementptr inbounds %struct.WasmEdge_Result, ptr %3, i32 0, i32 0
  store i32 %11, ptr %12, align 4
  %13 = getelementptr inbounds %struct.WasmEdge_Result, ptr %3, i32 0, i32 0
  %14 = load i32, ptr %13, align 4
  ret i32 %14
}