; Function Attrs: mustprogress nounwind uwtable
define i32 @WasmEdge_ValidatorValidate(ptr noundef %0, ptr noundef %1) local_unnamed_addr #10 personality ptr @__gxx_personality_v0 {
  %3 = alloca %"class.cxx20::expected.737", align 4
  call void @llvm.lifetime.start.p0(i64 8, ptr nonnull %3)
  %4 = icmp ne ptr %0, null
  %5 = icmp ne ptr %1, null
  %spec.select.i.i = and i1 %4, %5
  br i1 %spec.select.i.i, label %6, label %"_ZN12_GLOBAL__N_14wrapIZ26WasmEdge_ValidatorValidateE3$_0RNS_4$_10EJ25WasmEdge_ValidatorContextK25WasmEdge_ASTModuleContextEEE15WasmEdge_ResultOT_OT0_DpPT1_.exit"

6:                                                ; preds = %2
  invoke void @_ZN8WasmEdge9Validator9Validator8validateERKNS_3AST6ModuleE(ptr dead_on_unwind nonnull writable sret(%"class.cxx20::expected.737") align 4 %3, ptr noundef nonnull align 8 dereferenceable(520) %0, ptr noundef nonnull align 8 dereferenceable(705) %1)
          to label %"_ZZ26WasmEdge_ValidatorValidateENK3$_0clEv.exit.i" unwind label %11

"_ZZ26WasmEdge_ValidatorValidateENK3$_0clEv.exit.i": ; preds = %6
  %7 = load i8, ptr %3, align 4
  %8 = trunc i8 %7 to i1
  br i1 %8, label %"_ZN12_GLOBAL__N_14wrapIZ26WasmEdge_ValidatorValidateE3$_0RNS_4$_10EJ25WasmEdge_ValidatorContextK25WasmEdge_ASTModuleContextEEE15WasmEdge_ResultOT_OT0_DpPT1_.exit", label %9

9:                                                ; preds = %"_ZZ26WasmEdge_ValidatorValidateENK3$_0clEv.exit.i"
  %10 = getelementptr inbounds i8, ptr %3, i64 4
  %.val5.i = load i32, ptr %10, align 4
  br label %"_ZN12_GLOBAL__N_14wrapIZ26WasmEdge_ValidatorValidateE3$_0RNS_4$_10EJ25WasmEdge_ValidatorContextK25WasmEdge_ASTModuleContextEEE15WasmEdge_ResultOT_OT0_DpPT1_.exit"

11:                                               ; preds = %6
  %12 = landingpad { ptr, i32 }
          catch ptr null
  %13 = extractvalue { ptr, i32 } %12, 0
  call void @__clang_call_terminate(ptr %13) #39
  unreachable

"_ZN12_GLOBAL__N_14wrapIZ26WasmEdge_ValidatorValidateE3$_0RNS_4$_10EJ25WasmEdge_ValidatorContextK25WasmEdge_ASTModuleContextEEE15WasmEdge_ResultOT_OT0_DpPT1_.exit": ; preds = %2, %"_ZZ26WasmEdge_ValidatorValidateENK3$_0clEv.exit.i", %9
  %.sroa.0.0.i = phi i32 [ %.val5.i, %9 ], [ 0, %"_ZZ26WasmEdge_ValidatorValidateENK3$_0clEv.exit.i" ], [ 4, %2 ]
  call void @llvm.lifetime.end.p0(i64 8, ptr nonnull %3)
  ret i32 %.sroa.0.0.i
}